target datalayout = "e-m:e-p270:32:32-p271:32:32-p272:64:64-i64:64-i128:128-f80:128-n8:16:32:64-S128"
target triple = "x86_64-pc-linux-gnu"

; Function Attrs: mustprogress nounwind uwtable
define internal noundef i64 @_ZN4base12_GLOBAL__N_15lcpyTIwEEmPT_PKS2_m(ptr noundef %0, ptr noundef %1, i64 noundef %2) #0 {
  %4 = alloca i64, align 8
  %5 = alloca ptr, align 8
  %6 = alloca ptr, align 8
  %7 = alloca i64, align 8
  %8 = alloca i64, align 8
  %9 = alloca i32, align 4
  store ptr %0, ptr %5, align 8, !tbaa !3
  store ptr %1, ptr %6, align 8, !tbaa !3
  store i64 %2, ptr %7, align 8, !tbaa !20
  call void @llvm.lifetime.start.p0(i64 8, ptr %8) #17
  store i64 0, ptr %8, align 8, !tbaa !20
  br label %10

10:                                               ; preds = %27, %3
  %11 = load i64, ptr %8, align 8, !tbaa !20
  %12 = load i64, ptr %7, align 8, !tbaa !20
  %13 = icmp ult i64 %11, %12
  br i1 %13, label %15, label %14

14:                                               ; preds = %10
  store i32 2, ptr %9, align 4
  br label %30

15:                                               ; preds = %10
  %16 = load ptr, ptr %6, align 8, !tbaa !3
  %17 = load i64, ptr %8, align 8, !tbaa !20
  %18 = getelementptr inbounds nuw i32, ptr %16, i64 %17
  %19 = load i32, ptr %18, align 4, !tbaa !8
  %20 = load ptr, ptr %5, align 8, !tbaa !3
  %21 = load i64, ptr %8, align 8, !tbaa !20
  %22 = getelementptr inbounds nuw i32, ptr %20, i64 %21
  store i32 %19, ptr %22, align 4, !tbaa !8
  %23 = icmp eq i32 %19, 0
  br i1 %23, label %24, label %26

24:                                               ; preds = %15
  %25 = load i64, ptr %8, align 8, !tbaa !20
  store i64 %25, ptr %4, align 8
  store i32 1, ptr %9, align 4
  br label %30

26:                                               ; preds = %15
  br label %27

27:                                               ; preds = %26
  %28 = load i64, ptr %8, align 8, !tbaa !20
  %29 = add i64 %28, 1
  store i64 %29, ptr %8, align 8, !tbaa !20
  br label %10, !llvm.loop !127

30:                                               ; preds = %24, %14
  call void @llvm.lifetime.end.p0(i64 8, ptr %8) #17
  %31 = load i32, ptr %9, align 4
  switch i32 %31, label %54 [
    i32 2, label %32
    i32 1, label %52
  ]

32:                                               ; preds = %30
  %33 = load i64, ptr %7, align 8, !tbaa !20
  %34 = icmp ne i64 %33, 0
  br i1 %34, label %35, label %40

35:                                               ; preds = %32
  %36 = load ptr, ptr %5, align 8, !tbaa !3
  %37 = load i64, ptr %7, align 8, !tbaa !20
  %38 = sub i64 %37, 1
  %39 = getelementptr inbounds nuw i32, ptr %36, i64 %38
  store i32 0, ptr %39, align 4, !tbaa !8
  br label %40

40:                                               ; preds = %35, %32
  br label %41

41:                                               ; preds = %47, %40
  %42 = load ptr, ptr %6, align 8, !tbaa !3
  %43 = load i64, ptr %7, align 8, !tbaa !20
  %44 = getelementptr inbounds nuw i32, ptr %42, i64 %43
  %45 = load i32, ptr %44, align 4, !tbaa !8
  %46 = icmp ne i32 %45, 0
  br i1 %46, label %47, label %50

47:                                               ; preds = %41
  %48 = load i64, ptr %7, align 8, !tbaa !20
  %49 = add i64 %48, 1
  store i64 %49, ptr %7, align 8, !tbaa !20
  br label %41, !llvm.loop !128

50:                                               ; preds = %41
  %51 = load i64, ptr %7, align 8, !tbaa !20
  store i64 %51, ptr %4, align 8
  br label %52

52:                                               ; preds = %50, %30
  %53 = load i64, ptr %4, align 8
  ret i64 %53

54:                                               ; preds = %30
  unreachable
}

; Function Attrs: mustprogress uwtable
define noundef i64 @_ZN4base7wcslcpyEPwPKwm(ptr noundef %0, ptr noundef %1, i64 noundef %2) #3 {
  %4 = alloca ptr, align 8
  %5 = alloca ptr, align 8
  %6 = alloca i64, align 8
  store ptr %0, ptr %4, align 8, !tbaa !3
  store ptr %1, ptr %5, align 8, !tbaa !3
  store i64 %2, ptr %6, align 8, !tbaa !20
  %7 = load ptr, ptr %4, align 8, !tbaa !3
  %8 = load ptr, ptr %5, align 8, !tbaa !3
  %9 = load i64, ptr %6, align 8, !tbaa !20
  %10 = call noundef i64 @_ZN4base12_GLOBAL__N_15lcpyTIwEEmPT_PKS2_m(ptr noundef %7, ptr noundef %8, i64 noundef %9)
  ret i64 %10
}