; Function Attrs: mustprogress nofree norecurse nosync nounwind memory(argmem: readwrite) uwtable
define noundef i64 @_ZN4base7wcslcpyEPwPKwm(ptr noundef writeonly captures(none) %0, ptr noundef readonly captures(none) %1, i64 noundef %2) local_unnamed_addr #11 {
  %.not27.i = icmp eq i64 %2, 0
  br i1 %.not27.i, label %._crit_edge.thread.i.preheader, label %.lr.ph.i

.lr.ph.i:                                         ; preds = %3, %8
  %.01626.i = phi i64 [ %9, %8 ], [ 0, %3 ]
  %4 = getelementptr inbounds nuw i32, ptr %1, i64 %.01626.i
  %5 = load i32, ptr %4, align 4, !tbaa !3
  %6 = getelementptr inbounds nuw i32, ptr %0, i64 %.01626.i
  store i32 %5, ptr %6, align 4, !tbaa !3
  %7 = icmp eq i32 %5, 0
  br i1 %7, label %_ZN4base12_GLOBAL__N_15lcpyTIwEEmPT_PKS2_m.exit, label %8

8:                                                ; preds = %.lr.ph.i
  %9 = add nuw i64 %.01626.i, 1
  %exitcond.not.i = icmp eq i64 %9, %2
  br i1 %exitcond.not.i, label %._crit_edge.i, label %.lr.ph.i, !llvm.loop !146

._crit_edge.i:                                    ; preds = %8
  %10 = getelementptr i32, ptr %0, i64 %2
  %11 = getelementptr i8, ptr %10, i64 -4
  store i32 0, ptr %11, align 4, !tbaa !3
  br label %._crit_edge.thread.i.preheader

._crit_edge.thread.i.preheader:                   ; preds = %._crit_edge.i, %3
  br label %._crit_edge.thread.i

._crit_edge.thread.i:                             ; preds = %._crit_edge.thread.i.preheader, %._crit_edge.thread.i
  %.017.i = phi i64 [ %14, %._crit_edge.thread.i ], [ %2, %._crit_edge.thread.i.preheader ]
  %12 = getelementptr inbounds nuw i32, ptr %1, i64 %.017.i
  %13 = load i32, ptr %12, align 4, !tbaa !3
  %.not20.i = icmp eq i32 %13, 0
  %14 = add i64 %.017.i, 1
  br i1 %.not20.i, label %_ZN4base12_GLOBAL__N_15lcpyTIwEEmPT_PKS2_m.exit, label %._crit_edge.thread.i, !llvm.loop !147

_ZN4base12_GLOBAL__N_15lcpyTIwEEmPT_PKS2_m.exit:  ; preds = %.lr.ph.i, %._crit_edge.thread.i
  %.1.i = phi i64 [ %.017.i, %._crit_edge.thread.i ], [ %.01626.i, %.lr.ph.i ]
  ret i64 %.1.i
}